; Function Attrs: mustprogress uwtable
define dso_local noundef i32 @_ZN14V3OptionParser5parseEiiPPc(ptr nocapture noundef nonnull readonly align 8 dereferenceable(8) %0, i32 noundef %1, i32 noundef %2, ptr nocapture noundef readonly %3) #3 align 2 {
  %5 = load ptr, ptr %0, align 8
  %6 = getelementptr inbounds i8, ptr %5, i64 48
  %7 = load i8, ptr %6, align 8
  %8 = and i8 %7, 1
  %.not = icmp eq i8 %8, 0
  br i1 %.not, label %9, label %13

9:                                                ; preds = %4
  %10 = tail call noundef nonnull align 8 dereferenceable(112) ptr @_ZN7V3Error19v3errorPrepFileLineB5cxx11E11V3ErrorCodePKcib(i8 4, ptr noundef nonnull @.str.3, i32 noundef 199, i1 noundef zeroext true)
  %11 = tail call noundef nonnull align 8 dereferenceable(112) ptr @_ZN7V3Error10v3errorStrB5cxx11Ev()
  %12 = tail call noundef nonnull align 8 dereferenceable(8) ptr @_ZStlsISt11char_traitsIcEERSt13basic_ostreamIcT_ES5_PKc(ptr noundef nonnull align 8 dereferenceable(8) %11, ptr noundef nonnull @.str.6)
  tail call void @_Z15v3errorEndFatalRNSt7__cxx1119basic_ostringstreamIcSt11char_traitsIcESaIcEEE(ptr noundef nonnull align 8 dereferenceable(112) %12) #18
  unreachable

13:                                               ; preds = %4
  %14 = sext i32 %1 to i64
  %15 = getelementptr inbounds ptr, ptr %3, i64 %14
  %16 = load ptr, ptr %15, align 8
  %17 = load i8, ptr %16, align 1
  %18 = icmp eq i8 %17, 45
  br i1 %18, label %19, label %23

19:                                               ; preds = %13
  %20 = getelementptr inbounds i8, ptr %16, i64 1
  %21 = load i8, ptr %20, align 1
  %22 = icmp eq i8 %21, 45
  %spec.select = select i1 %22, ptr %20, ptr %16
  br label %23

23:                                               ; preds = %19, %13
  %.017 = phi ptr [ %16, %13 ], [ %spec.select, %19 ]
  %24 = tail call noundef ptr @_ZN14V3OptionParser4findEPKc(ptr noundef nonnull align 8 dereferenceable(8) %0, ptr noundef nonnull %.017)
  %.not20 = icmp eq ptr %24, null
  br i1 %.not20, label %40, label %25

25:                                               ; preds = %23
  %26 = load ptr, ptr %24, align 8
  %27 = getelementptr inbounds i8, ptr %26, i64 16
  %28 = load ptr, ptr %27, align 8
  %29 = tail call noundef zeroext i1 %28(ptr noundef nonnull align 8 dereferenceable(8) %24)
  br i1 %29, label %30, label %.sink.split

30:                                               ; preds = %25
  %31 = add nsw i32 %1, 1
  %32 = icmp slt i32 %31, %2
  br i1 %32, label %33, label %40

33:                                               ; preds = %30
  %34 = sext i32 %31 to i64
  %35 = getelementptr inbounds ptr, ptr %3, i64 %34
  %36 = load ptr, ptr %35, align 8
  br label %.sink.split

.sink.split:                                      ; preds = %25, %33
  %.sink = phi ptr [ %36, %33 ], [ null, %25 ]
  %.0.ph = phi i32 [ 2, %33 ], [ 1, %25 ]
  %37 = load ptr, ptr %24, align 8
  %38 = getelementptr inbounds i8, ptr %37, i64 56
  %39 = load ptr, ptr %38, align 8
  tail call void %39(ptr noundef nonnull align 8 dereferenceable(8) %24, ptr noundef nonnull %.017, ptr noundef %.sink)
  br label %40

40:                                               ; preds = %.sink.split, %30, %23
  %.0 = phi i32 [ 0, %23 ], [ 0, %30 ], [ %.0.ph, %.sink.split ]
  ret i32 %.0
}